; Function Attrs: mustprogress uwtable
define hidden noundef zeroext i1 @_ZNK3nla15monomial_bounds7is_zeroEj(ptr nocapture noundef nonnull readonly align 8 dereferenceable(192) %this, i32 noundef %v) local_unnamed_addr #3 align 2 {
entry:
  %0 = load ptr, ptr %this, align 8
  %call2 = tail call noundef zeroext i1 @_ZNK3nla4core15has_lower_boundEj(ptr noundef nonnull align 8 dereferenceable(4720) %0, i32 noundef %v)
  br i1 %call2, label %land.lhs.true, label %land.end

land.lhs.true:                                    ; preds = %entry
  %1 = load ptr, ptr %this, align 8
  %call4 = tail call noundef zeroext i1 @_ZNK3nla4core15has_upper_boundEj(ptr noundef nonnull align 8 dereferenceable(4720) %1, i32 noundef %v)
  br i1 %call4, label %land.lhs.true5, label %land.end

land.lhs.true5:                                   ; preds = %land.lhs.true
  %2 = load ptr, ptr %this, align 8
  %call7 = tail call noundef nonnull align 8 dereferenceable(32) ptr @_ZNK3nla4core15get_lower_boundEj(ptr noundef nonnull align 8 dereferenceable(4720) %2, i32 noundef %v)
  %3 = load i32, ptr %call7, align 8
  %cmp.i.i.i.i = icmp eq i32 %3, 0
  br i1 %cmp.i.i.i.i, label %land.rhs, label %land.end

land.rhs:                                         ; preds = %land.lhs.true5
  %4 = load ptr, ptr %this, align 8
  %call10 = tail call noundef nonnull align 8 dereferenceable(32) ptr @_ZNK3nla4core15get_upper_boundEj(ptr noundef nonnull align 8 dereferenceable(4720) %4, i32 noundef %v)
  %5 = load i32, ptr %call10, align 8
  %cmp.i.i.i.i4 = icmp eq i32 %5, 0
  br label %land.end

land.end:                                         ; preds = %land.rhs, %land.lhs.true5, %land.lhs.true, %entry
  %6 = phi i1 [ false, %land.lhs.true5 ], [ false, %land.lhs.true ], [ false, %entry ], [ %cmp.i.i.i.i4, %land.rhs ]
  ret i1 %6
}